target datalayout = "e-m:e-p270:32:32-p271:32:32-p272:64:64-i64:64-i128:128-f80:128-n8:16:32:64-S128"
target triple = "x86_64-pc-linux-gnu"

%struct.ssl_ecdh_method_st = type { i32, i16, [8 x i8], ptr, ptr, ptr }

; Function Attrs: nounwind uwtable
define internal ptr @method_from_nid(i32 noundef %0) #0 {
  %2 = alloca ptr, align 8
  %3 = alloca i32, align 4
  %4 = alloca i64, align 8
  %5 = alloca i32, align 4
  store i32 %0, ptr %3, align 4, !tbaa !22
  call void @llvm.lifetime.start.p0(i64 8, ptr %4) #5
  store i64 0, ptr %4, align 8, !tbaa !13
  br label %6

6:                                                ; preds = %20, %1
  %7 = load i64, ptr %4, align 8, !tbaa !13
  %8 = icmp ult i64 %7, 4
  br i1 %8, label %9, label %23

9:                                                ; preds = %6
  %10 = load i64, ptr %4, align 8, !tbaa !13
  %11 = getelementptr inbounds nuw [4 x %struct.ssl_ecdh_method_st], ptr @kMethods, i64 0, i64 %10
  %12 = getelementptr inbounds nuw %struct.ssl_ecdh_method_st, ptr %11, i32 0, i32 0
  %13 = load i32, ptr %12, align 8, !tbaa !23
  %14 = load i32, ptr %3, align 4, !tbaa !22
  %15 = icmp eq i32 %13, %14
  br i1 %15, label %16, label %19

16:                                               ; preds = %9
  %17 = load i64, ptr %4, align 8, !tbaa !13
  %18 = getelementptr inbounds nuw [4 x %struct.ssl_ecdh_method_st], ptr @kMethods, i64 0, i64 %17
  store ptr %18, ptr %2, align 8
  store i32 1, ptr %5, align 4
  br label %24

19:                                               ; preds = %9
  br label %20

20:                                               ; preds = %19
  %21 = load i64, ptr %4, align 8, !tbaa !13
  %22 = add i64 %21, 1
  store i64 %22, ptr %4, align 8, !tbaa !13
  br label %6, !llvm.loop !24

23:                                               ; preds = %6
  store ptr null, ptr %2, align 8
  store i32 1, ptr %5, align 4
  br label %24

24:                                               ; preds = %23, %16
  call void @llvm.lifetime.end.p0(i64 8, ptr %4) #5
  %25 = load ptr, ptr %2, align 8
  ret ptr %25
}

; Function Attrs: nounwind uwtable
define hidden i32 @ssl_nid_to_curve_id(ptr noundef %0, i32 noundef %1) #0 {
  %3 = alloca i32, align 4
  %4 = alloca ptr, align 8
  %5 = alloca i32, align 4
  %6 = alloca ptr, align 8
  %7 = alloca i32, align 4
  store ptr %0, ptr %4, align 8, !tbaa !20
  store i32 %1, ptr %5, align 4, !tbaa !22
  call void @llvm.lifetime.start.p0(i64 8, ptr %6) #5
  %8 = load i32, ptr %5, align 4, !tbaa !22
  %9 = call ptr @method_from_nid(i32 noundef %8)
  store ptr %9, ptr %6, align 8, !tbaa !10
  %10 = load ptr, ptr %6, align 8, !tbaa !10
  %11 = icmp eq ptr %10, null
  br i1 %11, label %12, label %13

12:                                               ; preds = %2
  store i32 0, ptr %3, align 4
  store i32 1, ptr %7, align 4
  br label %18

13:                                               ; preds = %2
  %14 = load ptr, ptr %6, align 8, !tbaa !10
  %15 = getelementptr inbounds nuw %struct.ssl_ecdh_method_st, ptr %14, i32 0, i32 1
  %16 = load i16, ptr %15, align 4, !tbaa !15
  %17 = load ptr, ptr %4, align 8, !tbaa !20
  store i16 %16, ptr %17, align 2, !tbaa !6
  store i32 1, ptr %3, align 4
  store i32 1, ptr %7, align 4
  br label %18

18:                                               ; preds = %13, %12
  call void @llvm.lifetime.end.p0(i64 8, ptr %6) #5
  %19 = load i32, ptr %3, align 4
  ret i32 %19
}