; Function Attrs: nofree norecurse nosync nounwind memory(argmem: write) uwtable
define hidden range(i32 0, 2) i32 @ssl_nid_to_curve_id(ptr noundef writeonly captures(none) %0, i32 noundef %1) local_unnamed_addr #2 {
  br label %5

3:                                                ; preds = %5
  %4 = add nuw nsw i64 %.06.i, 1
  %exitcond.not.i = icmp eq i64 %4, 4
  br i1 %exitcond.not.i, label %method_from_nid.exit.thread, label %5, !llvm.loop !15

5:                                                ; preds = %3, %2
  %.06.i = phi i64 [ 0, %2 ], [ %4, %3 ]
  %6 = getelementptr inbounds nuw [4 x %struct.ssl_ecdh_method_st], ptr @kMethods, i64 0, i64 %.06.i
  %7 = load i32, ptr %6, align 8, !tbaa !16
  %8 = icmp eq i32 %7, %1
  br i1 %8, label %method_from_nid.exit, label %3

method_from_nid.exit:                             ; preds = %5
  %9 = getelementptr inbounds nuw i8, ptr %6, i64 4
  %10 = load i16, ptr %9, align 4, !tbaa !8
  store i16 %10, ptr %0, align 2, !tbaa !17
  br label %method_from_nid.exit.thread

method_from_nid.exit.thread:                      ; preds = %3, %method_from_nid.exit
  %.0 = phi i32 [ 1, %method_from_nid.exit ], [ 0, %3 ]
  ret i32 %.0
}